target datalayout = "e-m:e-p270:32:32-p271:32:32-p272:64:64-i64:64-i128:128-f80:128-n8:16:32:64-S128"
target triple = "x86_64-pc-linux-gnu"

%struct.hwloc_backend = type { ptr, ptr, i32, ptr, i32, i64, i32, ptr, ptr, ptr }

; Function Attrs: nounwind uwtable
define internal ptr @hwloc_nvml_component_instantiate(ptr noundef %0, ptr noundef %1, i32 noundef %2, ptr noundef %3, ptr noundef %4, ptr noundef %5) #0 {
  %7 = alloca ptr, align 8
  %8 = alloca ptr, align 8
  %9 = alloca ptr, align 8
  %10 = alloca i32, align 4
  %11 = alloca ptr, align 8
  %12 = alloca ptr, align 8
  %13 = alloca ptr, align 8
  %14 = alloca ptr, align 8
  %15 = alloca i32, align 4
  store ptr %0, ptr %8, align 8, !tbaa !10
  store ptr %1, ptr %9, align 8, !tbaa !12
  store i32 %2, ptr %10, align 4, !tbaa !14
  store ptr %3, ptr %11, align 8, !tbaa !16
  store ptr %4, ptr %12, align 8, !tbaa !16
  store ptr %5, ptr %13, align 8, !tbaa !16
  call void @llvm.lifetime.start.p0(i64 8, ptr %14) #9
  %16 = load ptr, ptr %8, align 8, !tbaa !10
  %17 = load ptr, ptr %9, align 8, !tbaa !12
  %18 = call ptr @hwloc_backend_alloc(ptr noundef %16, ptr noundef %17, i64 noundef 0)
  store ptr %18, ptr %14, align 8, !tbaa !17
  %19 = load ptr, ptr %14, align 8, !tbaa !17
  %20 = icmp ne ptr %19, null
  br i1 %20, label %22, label %21

21:                                               ; preds = %6
  store ptr null, ptr %7, align 8
  store i32 1, ptr %15, align 4
  br label %26

22:                                               ; preds = %6
  %23 = load ptr, ptr %14, align 8, !tbaa !17
  %24 = getelementptr inbounds nuw %struct.hwloc_backend, ptr %23, i32 0, i32 8
  store ptr @hwloc_nvml_discover, ptr %24, align 8, !tbaa !19
  %25 = load ptr, ptr %14, align 8, !tbaa !17
  store ptr %25, ptr %7, align 8
  store i32 1, ptr %15, align 4
  br label %26

26:                                               ; preds = %22, %21
  call void @llvm.lifetime.end.p0(i64 8, ptr %14) #9
  %27 = load ptr, ptr %7, align 8
  ret ptr %27
}